Certificate:
    Data:
        Version: 3 (0x2)
        Serial Number: 1 (0x1)
    Signature Algorithm: sha256WithRSAEncryption
        Issuer: C=CN, ST=HeBei, L=DaChang, O=BBC, OU=BBC-core, CN=BBC CA/name=EasyRSA/emailAddress=shang_qd@qq.com
        Validity
            Not Before: May  5 10:07:46 2020 GMT
            Not After : May  3 10:07:46 2030 GMT
        Subject: C=CN, ST=HeBei, L=DaChang, O=BBC, OU=BBC-core, CN=server/name=EasyRSA/emailAddress=shang_qd@qq.com
        Subject Public Key Info:
            Public Key Algorithm: rsaEncryption
                Public-Key: (2048 bit)
                Modulus:
                    00:d7:d0:80:77:af:b5:67:a7:be:3e:b9:7b:03:d6:
                    9a:6f:7e:ae:d0:fd:42:1c:85:2b:6c:0a:81:e3:34:
                    ce:78:2d:6d:f8:94:5b:7d:dd:24:ee:b0:7f:bc:64:
                    67:ee:b2:80:af:3b:12:ec:12:28:c5:a0:79:c9:54:
                    c9:25:e8:cf:67:1f:37:88:e1:ff:c1:5c:74:8c:df:
                    a4:42:cc:b9:71:7e:36:e6:f9:7d:a7:1a:3a:c2:28:
                    f4:39:28:6e:bb:38:a8:ba:37:2a:91:e0:1f:b9:b3:
                    00:35:19:62:52:5a:db:8d:9b:68:83:de:bd:68:44:
                    cc:2d:ce:55:42:1d:5f:34:d5:8f:81:72:8e:e2:0d:
                    a8:6f:99:06:75:e1:c0:8c:c7:82:a5:62:0d:ca:6d:
                    2c:0e:9d:4d:1a:69:69:8e:18:09:21:52:88:c0:ee:
                    b0:18:09:7e:3f:9d:7c:9e:78:62:16:79:e2:ea:f7:
                    58:fa:ef:01:f2:f1:bc:39:c7:2f:1e:86:3b:df:fc:
                    f2:74:14:3d:f6:5a:e4:84:cf:77:3c:f3:97:7d:f4:
                    b9:1d:b4:e1:0c:64:1a:9f:bf:78:93:0a:1a:bd:6d:
                    7a:5a:b4:6b:ed:95:63:d9:7a:ed:35:0e:26:fd:dc:
                    00:a4:dd:bd:56:c8:16:cf:e8:90:23:85:94:60:b8:
                    50:15
                Exponent: 65537 (0x10001)
        X509v3 extensions:
            X509v3 Basic Constraints: 
                CA:FALSE
            Netscape Cert Type: 
                SSL Server
            Netscape Comment: 
                Easy-RSA Generated Server Certificate
            X509v3 Subject Key Identifier: 
                40:2C:AF:38:10:86:5B:6B:7A:FA:BF:82:13:67:28:7D:88:EE:F7:8E
            X509v3 Authority Key Identifier: 
                keyid:3B:D1:91:81:15:07:6C:02:76:C7:51:0F:EA:AB:83:53:59:37:D0:CC
                DirName:/C=CN/ST=HeBei/L=DaChang/O=BBC/OU=BBC-core/CN=BBC CA/name=EasyRSA/emailAddress=shang_qd@qq.com
                serial:9C:68:0D:2B:7A:E9:D1:3D

            X509v3 Extended Key Usage: 
                TLS Web Server Authentication
            X509v3 Key Usage: 
                Digital Signature, Key Encipherment
            X509v3 Subject Alternative Name: 
                DNS:server
    Signature Algorithm: sha256WithRSAEncryption
         4a:57:1d:9e:54:d5:12:41:9a:8b:6e:dd:37:c1:78:eb:ec:e7:
         6e:9f:f5:dd:eb:6a:f0:10:49:71:b3:62:06:86:cb:d5:f4:db:
         55:fc:3d:db:be:ff:7a:65:cd:94:9e:22:49:21:2d:db:33:cb:
         31:d1:20:98:27:b8:ff:40:7b:3d:fa:fe:ea:7b:ec:59:04:ce:
         57:5f:71:83:19:a8:4d:ad:20:5d:1c:a2:80:54:c1:d9:ff:33:
         1c:cd:03:f8:6a:14:22:9b:67:0a:27:13:ec:63:6e:f3:e4:20:
         e2:23:e1:f1:1a:9e:61:d5:ce:60:7d:0d:b3:52:57:ec:b2:a5:
         73:b0:cc:22:67:ed:6d:68:3c:1a:28:f6:a8:09:44:e7:9e:d5:
         a9:50:4a:95:0a:e4:48:5b:c6:21:c7:a7:e9:d0:8d:61:94:91:
         43:3a:33:2d:e2:e5:c2:63:bf:4f:05:ea:ca:ad:64:4e:64:56:
         63:bb:c3:08:84:4a:00:0a:9c:4d:83:89:f7:ff:56:57:c5:83:
         57:6f:99:aa:63:44:1d:70:77:2b:ba:74:b6:79:a5:c9:c3:bf:
         44:bc:2c:e9:5e:e8:8f:94:a4:06:ee:d0:f7:b8:bc:a7:57:29:
         a9:a3:ff:5e:12:03:2a:60:b4:33:85:b5:4b:d3:ad:31:c8:be:
         8f:db:21:69
-----BEGIN CERTIFICATE-----
MIIFHDCCBASgAwIBAgIBATANBgkqhkiG9w0BAQsFADCBkzELMAkGA1UEBhMCQ04x
DjAMBgNVBAgTBUhlQmVpMRAwDgYDVQQHEwdEYUNoYW5nMQwwCgYDVQQKEwNCQkMx
ETAPBgNVBAsTCEJCQy1jb3JlMQ8wDQYDVQQDEwZCQkMgQ0ExEDAOBgNVBCkTB0Vh
c3lSU0ExHjAcBgkqhkiG9w0BCQEWD3NoYW5nX3FkQHFxLmNvbTAeFw0yMDA1MDUx
MDA3NDZaFw0zMDA1MDMxMDA3NDZaMIGTMQswCQYDVQQGEwJDTjEOMAwGA1UECBMF
SGVCZWkxEDAOBgNVBAcTB0RhQ2hhbmcxDDAKBgNVBAoTA0JCQzERMA8GA1UECxMI
QkJDLWNvcmUxDzANBgNVBAMTBnNlcnZlcjEQMA4GA1UEKRMHRWFzeVJTQTEeMBwG
CSqGSIb3DQEJARYPc2hhbmdfcWRAcXEuY29tMIIBIjANBgkqhkiG9w0BAQEFAAOC
AQ8AMIIBCgKCAQEA19CAd6+1Z6e+Prl7A9aab36u0P1CHIUrbAqB4zTOeC1t+JRb
fd0k7rB/vGRn7rKArzsS7BIoxaB5yVTJJejPZx83iOH/wVx0jN+kQsy5cX425vl9
pxo6wij0OShuuzioujcqkeAfubMANRliUlrbjZtog969aETMLc5VQh1fNNWPgXKO
4g2ob5kGdeHAjMeCpWINym0sDp1NGmlpjhgJIVKIwO6wGAl+P518nnhiFnni6vdY
+u8B8vG8OccvHoY73/zydBQ99lrkhM93PPOXffS5HbThDGQan794kwoavW16WrRr
7ZVj2XrtNQ4m/dwApN29VsgWz+iQI4WUYLhQFQIDAQABo4IBdzCCAXMwCQYDVR0T
BAIwADARBglghkgBhvhCAQEEBAMCBkAwNAYJYIZIAYb4QgENBCcWJUVhc3ktUlNB
IEdlbmVyYXRlZCBTZXJ2ZXIgQ2VydGlmaWNhdGUwHQYDVR0OBBYEFEAsrzgQhltr
evq/ghNnKH2I7veOMIHIBgNVHSMEgcAwgb2AFDvRkYEVB2wCdsdRD+qrg1NZN9DM
oYGZpIGWMIGTMQswCQYDVQQGEwJDTjEOMAwGA1UECBMFSGVCZWkxEDAOBgNVBAcT
B0RhQ2hhbmcxDDAKBgNVBAoTA0JCQzERMA8GA1UECxMIQkJDLWNvcmUxDzANBgNV
BAMTBkJCQyBDQTEQMA4GA1UEKRMHRWFzeVJTQTEeMBwGCSqGSIb3DQEJARYPc2hh
bmdfcWRAcXEuY29tggkAnGgNK3rp0T0wEwYDVR0lBAwwCgYIKwYBBQUHAwEwCwYD
VR0PBAQDAgWgMBEGA1UdEQQKMAiCBnNlcnZlcjANBgkqhkiG9w0BAQsFAAOCAQEA
SlcdnlTVEkGai27dN8F46+znbp/13etq8BBJcbNiBobL1fTbVfw9277/emXNlJ4i
SSEt2zPLMdEgmCe4/0B7Pfr+6nvsWQTOV19xgxmoTa0gXRyigFTB2f8zHM0D+GoU
IptnCicT7GNu8+Qg4iPh8RqeYdXOYH0Ns1JX7LKlc7DMImftbWg8Gij2qAlE557V
qVBKlQrkSFvGIcen6dCNYZSRQzozLeLlwmO/TwXqyq1kTmRWY7vDCIRKAAqcTYOJ
9/9WV8WDV2+ZqmNEHXB3K7p0tnmlycO/RLws6V7oj5SkBu7Q97i8p1cpqaP/XhID
KmC0M4W1S9OtMci+j9shaQ==
-----END CERTIFICATE-----
